Certificate:
    Data:
        Version: 3 (0x2)
        Serial Number: 2 (0x2)
    Signature Algorithm: sha256WithRSAEncryption
        Issuer: C=ES, ST=AL, L=Almeria, O=MDEF, OU=changeme, CN=VPN/name=changeme/emailAddress=jrodg62@mde.es
        Validity
            Not Before: Oct 23 18:25:42 2019 GMT
            Not After : Oct 20 18:25:42 2029 GMT
        Subject: C=ES, ST=AL, L=Almeria, O=MDEF, OU=changeme, CN=changeme/name=changeme/emailAddress=jrodg62@mde.es
        Subject Public Key Info:
            Public Key Algorithm: rsaEncryption
                Public-Key: (4096 bit)
                Modulus:
                    00:a9:7e:13:06:01:9d:79:e8:10:0c:54:7a:0c:4c:
                    eb:5e:b0:59:81:09:f9:8e:71:a5:27:74:23:a3:ae:
                    9d:0c:31:3c:42:df:b5:08:6c:78:fb:ad:02:3d:bd:
                    9b:fb:b8:a4:10:09:d3:e6:96:0d:0e:dd:1e:d2:81:
                    51:a5:ff:04:4d:6b:e5:97:7d:82:ef:7a:b1:f9:b0:
                    3d:a5:93:81:42:40:5c:b3:07:10:f4:16:4a:b9:71:
                    dc:32:ae:8b:f2:5e:38:a7:87:81:ef:3d:41:46:76:
                    c4:3b:42:18:6c:6a:ca:8a:99:08:df:ec:ea:1c:42:
                    6c:04:63:ae:23:f5:95:6e:a5:dc:78:c3:17:f2:db:
                    2f:b2:43:bb:8f:73:ca:31:d6:59:ef:84:03:4e:36:
                    22:da:a2:a2:47:34:37:b0:58:33:14:79:cb:ae:2e:
                    30:a2:dd:03:fa:79:3b:2f:45:e0:44:33:33:42:76:
                    ff:27:e9:9f:f0:c5:eb:8c:89:f0:3d:39:7e:d9:1f:
                    9b:b0:2d:0e:5c:e8:0f:ac:bb:a7:89:5a:33:f8:bb:
                    d3:b2:46:31:47:b1:55:3a:b5:26:e0:13:3f:c2:f4:
                    02:05:ba:24:85:53:47:0c:03:3f:12:b5:fa:9b:f7:
                    f8:6a:f3:a4:2c:9e:2e:75:b7:db:73:99:b1:11:72:
                    20:0a:56:77:5e:d2:d1:eb:a3:4c:ca:5c:7b:d8:8a:
                    a3:e1:a2:1e:40:63:bf:eb:e5:64:89:42:d2:24:cc:
                    b4:76:6f:2b:3d:5b:ac:24:97:3b:55:12:03:b0:f9:
                    bc:12:9f:64:ff:c6:28:2d:e5:c3:2d:7d:88:8e:de:
                    aa:fe:ff:67:b8:b0:40:2e:88:2b:15:27:63:44:4b:
                    c7:06:e6:64:cf:38:81:a7:d4:85:13:8b:81:19:16:
                    3e:9f:43:5e:a3:f5:49:88:6c:e7:e4:f4:7a:56:d4:
                    48:21:4e:c9:b1:83:05:87:f0:d6:9d:35:b8:da:01:
                    c1:a0:7d:d9:04:b7:00:bb:2d:45:68:24:d1:a5:bc:
                    b3:2c:5b:d6:0e:38:80:ce:4e:38:1f:60:cc:91:6e:
                    2e:fc:25:84:94:6a:9f:90:ca:4e:7a:68:d4:aa:19:
                    3a:83:c1:6b:2c:c2:a1:1a:1b:23:e9:be:b1:40:e2:
                    70:f0:1f:01:5a:2f:f7:d9:34:94:2d:0f:89:32:5e:
                    e2:a9:76:45:95:9c:88:f8:33:e2:ff:82:dc:30:16:
                    0b:6d:f8:79:3f:1e:f1:cb:9d:ec:29:a4:c0:f1:d4:
                    64:1c:ed:79:87:54:67:bb:13:cb:00:b2:f2:dc:9c:
                    2c:b8:d0:cf:04:6c:ce:0e:c4:7a:7d:3d:d4:30:96:
                    6c:ab:c9
                Exponent: 65537 (0x10001)
        X509v3 extensions:
            X509v3 Basic Constraints: 
                CA:FALSE
            Netscape Comment: 
                Easy-RSA Generated Certificate
            X509v3 Subject Key Identifier: 
                E9:00:1B:64:E3:FF:8B:E2:75:F3:BA:D8:D0:2D:73:9B:3A:61:73:E4
            X509v3 Authority Key Identifier: 
                keyid:F6:E3:08:31:2A:B7:F2:12:37:57:B8:DE:0D:66:4D:1B:FF:68:49:01
                DirName:/C=ES/ST=AL/L=Almeria/O=MDEF/OU=changeme/CN=VPN/name=changeme/emailAddress=jrodg62@mde.es
                serial:DE:67:04:76:C8:AC:DE:0A

            X509v3 Extended Key Usage: 
                TLS Web Client Authentication
            X509v3 Key Usage: 
                Digital Signature
    Signature Algorithm: sha256WithRSAEncryption
         99:7a:96:84:0b:19:db:9b:ce:ca:75:ee:56:9e:f5:e1:57:c5:
         a1:4d:a4:ce:94:6b:80:3b:c2:7c:23:c9:f9:fd:14:33:bc:42:
         55:da:a6:76:a8:ab:6c:5a:86:8c:e4:54:88:4a:a0:e7:2d:84:
         5c:08:a3:0a:be:52:2f:7d:bf:13:b9:5d:7b:8d:b2:1c:fd:e6:
         de:4c:b1:7a:22:d6:0b:ca:39:0d:5e:58:c4:d5:8b:42:33:e0:
         50:e4:0a:76:ad:6b:1d:55:f8:84:28:8d:5b:b2:98:1c:0a:86:
         3b:d5:6f:1d:bc:3a:b0:1e:6d:af:b7:e6:70:23:5c:01:22:68:
         c9:a0:44:05:d8:e9:e4:d7:a6:e2:65:50:e4:df:ff:bb:a2:41:
         13:ff:9f:05:8f:a2:91:7c:f9:e5:23:9f:00:c9:df:15:c0:2d:
         32:76:c5:15:ef:d5:b2:e8:b3:5a:56:33:4a:b5:62:58:a1:4f:
         3e:52:d6:32:dd:12:00:e3:15:a6:ac:6d:fa:15:29:77:bd:99:
         3c:e3:24:6a:c6:cd:f8:63:c5:d3:23:52:58:14:f8:03:1f:da:
         cb:07:d7:5e:58:fd:5c:67:7d:82:98:6c:81:90:40:d1:29:1e:
         bb:ff:77:89:25:d9:47:88:64:c5:9b:63:ee:d8:48:ff:cf:1f:
         df:96:2d:3b:d4:7f:c5:62:46:6c:9b:25:56:a7:ca:8c:f4:28:
         b5:4c:5f:4d:bb:c9:b8:ae:aa:84:9a:29:54:f5:47:72:bd:e3:
         1b:31:11:5d:5d:6c:e7:00:4a:b7:6e:6c:18:bb:d1:f6:05:d0:
         a1:b1:34:df:ba:1c:ab:c8:0f:5b:f3:f3:6f:7c:14:b2:69:5c:
         3d:e5:69:ae:b4:e5:40:05:12:85:ef:2d:f0:14:11:d7:87:ad:
         21:9e:3a:32:ff:19:a0:d1:97:ea:6a:eb:e9:c2:1b:43:6f:8f:
         0c:81:c7:4c:db:c6:4c:08:41:7e:a2:ab:2f:65:5e:2a:ac:69:
         91:01:34:77:63:c8:bb:51:6f:d2:41:17:65:bd:0a:88:35:c3:
         50:69:a2:ab:34:3f:82:a4:1c:8a:92:2d:ad:48:e0:66:a5:0f:
         5b:8c:99:2f:32:9d:37:47:03:f1:8f:3c:61:92:3b:bb:c0:a9:
         43:6e:ef:30:99:ff:69:eb:13:e9:c1:07:49:2a:ad:77:80:78:
         eb:9d:9a:cf:29:63:8f:ab:ba:2d:8b:e3:20:f5:c0:99:62:73:
         bf:bb:6c:33:8a:87:f6:c8:86:81:06:db:25:36:f6:cb:4f:cc:
         29:7d:d3:10:ee:b8:3a:82:37:9c:61:f4:5e:b9:97:e3:2c:9a:
         87:cf:10:99:cb:4d:94:fe
-----BEGIN CERTIFICATE-----
MIIG5TCCBM2gAwIBAgIBAjANBgkqhkiG9w0BAQsFADCBjjELMAkGA1UEBhMCRVMx
CzAJBgNVBAgTAkFMMRAwDgYDVQQHEwdBbG1lcmlhMQ0wCwYDVQQKEwRNREVGMREw
DwYDVQQLEwhjaGFuZ2VtZTEMMAoGA1UEAxMDVlBOMREwDwYDVQQpEwhjaGFuZ2Vt
ZTEdMBsGCSqGSIb3DQEJARYOanJvZGc2MkBtZGUuZXMwHhcNMTkxMDIzMTgyNTQy
WhcNMjkxMDIwMTgyNTQyWjCBkzELMAkGA1UEBhMCRVMxCzAJBgNVBAgTAkFMMRAw
DgYDVQQHEwdBbG1lcmlhMQ0wCwYDVQQKEwRNREVGMREwDwYDVQQLEwhjaGFuZ2Vt
ZTERMA8GA1UEAxMIY2hhbmdlbWUxETAPBgNVBCkTCGNoYW5nZW1lMR0wGwYJKoZI
hvcNAQkBFg5qcm9kZzYyQG1kZS5lczCCAiIwDQYJKoZIhvcNAQEBBQADggIPADCC
AgoCggIBAKl+EwYBnXnoEAxUegxM616wWYEJ+Y5xpSd0I6OunQwxPELftQhsePut
Aj29m/u4pBAJ0+aWDQ7dHtKBUaX/BE1r5Zd9gu96sfmwPaWTgUJAXLMHEPQWSrlx
3DKui/JeOKeHge89QUZ2xDtCGGxqyoqZCN/s6hxCbARjriP1lW6l3HjDF/LbL7JD
u49zyjHWWe+EA042Itqiokc0N7BYMxR5y64uMKLdA/p5Oy9F4EQzM0J2/yfpn/DF
64yJ8D05ftkfm7AtDlzoD6y7p4laM/i707JGMUexVTq1JuATP8L0AgW6JIVTRwwD
PxK1+pv3+GrzpCyeLnW323OZsRFyIApWd17S0eujTMpce9iKo+GiHkBjv+vlZIlC
0iTMtHZvKz1brCSXO1USA7D5vBKfZP/GKC3lwy19iI7eqv7/Z7iwQC6IKxUnY0RL
xwbmZM84gafUhROLgRkWPp9DXqP1SYhs5+T0elbUSCFOybGDBYfw1p01uNoBwaB9
2QS3ALstRWgk0aW8syxb1g44gM5OOB9gzJFuLvwlhJRqn5DKTnpo1KoZOoPBayzC
oRobI+m+sUDicPAfAVov99k0lC0PiTJe4ql2RZWciPgz4v+C3DAWC234eT8e8cud
7CmkwPHUZBzteYdUZ7sTywCy8tycLLjQzwRszg7Een091DCWbKvJAgMBAAGjggFF
MIIBQTAJBgNVHRMEAjAAMC0GCWCGSAGG+EIBDQQgFh5FYXN5LVJTQSBHZW5lcmF0
ZWQgQ2VydGlmaWNhdGUwHQYDVR0OBBYEFOkAG2Tj/4vidfO62NAtc5s6YXPkMIHD
BgNVHSMEgbswgbiAFPbjCDEqt/ISN1e43g1mTRv/aEkBoYGUpIGRMIGOMQswCQYD
VQQGEwJFUzELMAkGA1UECBMCQUwxEDAOBgNVBAcTB0FsbWVyaWExDTALBgNVBAoT
BE1ERUYxETAPBgNVBAsTCGNoYW5nZW1lMQwwCgYDVQQDEwNWUE4xETAPBgNVBCkT
CGNoYW5nZW1lMR0wGwYJKoZIhvcNAQkBFg5qcm9kZzYyQG1kZS5lc4IJAN5nBHbI
rN4KMBMGA1UdJQQMMAoGCCsGAQUFBwMCMAsGA1UdDwQEAwIHgDANBgkqhkiG9w0B
AQsFAAOCAgEAmXqWhAsZ25vOynXuVp714VfFoU2kzpRrgDvCfCPJ+f0UM7xCVdqm
dqirbFqGjORUiEqg5y2EXAijCr5SL32/E7lde42yHP3m3kyxeiLWC8o5DV5YxNWL
QjPgUOQKdq1rHVX4hCiNW7KYHAqGO9VvHbw6sB5tr7fmcCNcASJoyaBEBdjp5Nem
4mVQ5N//u6JBE/+fBY+ikXz55SOfAMnfFcAtMnbFFe/VsuizWlYzSrViWKFPPlLW
Mt0SAOMVpqxt+hUpd72ZPOMkasbN+GPF0yNSWBT4Ax/aywfXXlj9XGd9gphsgZBA
0Skeu/93iSXZR4hkxZtj7thI/88f35YtO9R/xWJGbJslVqfKjPQotUxfTbvJuK6q
hJopVPVHcr3jGzERXV1s5wBKt25sGLvR9gXQobE037ocq8gPW/Pzb3wUsmlcPeVp
rrTlQAUShe8t8BQR14etIZ46Mv8ZoNGX6mrr6cIbQ2+PDIHHTNvGTAhBfqKrL2Ve
KqxpkQE0d2PIu1Fv0kEXZb0KiDXDUGmiqzQ/gqQcipItrUjgZqUPW4yZLzKdN0cD
8Y88YZI7u8CpQ27vMJn/aesT6cEHSSqtd4B4652azyljj6u6LYvjIPXAmWJzv7ts
M4qH9siGgQbbJTb2y0/MKX3TEO64OoI3nGH0XrmX4yyah88QmctNlP4=
-----END CERTIFICATE-----
